target datalayout = "e-m:e-p270:32:32-p271:32:32-p272:64:64-i64:64-i128:128-f80:128-n8:16:32:64-S128"
target triple = "x86_64-pc-linux-gnu"

%struct.slice_buffer_s = type { ptr, ptr, i32, i32, i32, i32, ptr }

; Function Attrs: nounwind uwtable
define void @ff_slice_buffer_release(ptr noundef %0, i32 noundef %1) #0 {
  %3 = alloca ptr, align 8
  %4 = alloca i32, align 4
  %5 = alloca ptr, align 8
  store ptr %0, ptr %3, align 8, !tbaa !4
  store i32 %1, ptr %4, align 4, !tbaa !9
  call void @llvm.lifetime.start.p0(i64 8, ptr %5) #8
  %6 = load ptr, ptr %3, align 8, !tbaa !4
  %7 = getelementptr inbounds nuw %struct.slice_buffer_s, ptr %6, i32 0, i32 0
  %8 = load ptr, ptr %7, align 8, !tbaa !20
  %9 = load i32, ptr %4, align 4, !tbaa !9
  %10 = sext i32 %9 to i64
  %11 = getelementptr inbounds ptr, ptr %8, i64 %10
  %12 = load ptr, ptr %11, align 8, !tbaa !11
  store ptr %12, ptr %5, align 8, !tbaa !11
  %13 = load ptr, ptr %3, align 8, !tbaa !4
  %14 = getelementptr inbounds nuw %struct.slice_buffer_s, ptr %13, i32 0, i32 2
  %15 = load i32, ptr %14, align 8, !tbaa !25
  %16 = add nsw i32 %15, 1
  store i32 %16, ptr %14, align 8, !tbaa !25
  %17 = load ptr, ptr %5, align 8, !tbaa !11
  %18 = load ptr, ptr %3, align 8, !tbaa !4
  %19 = getelementptr inbounds nuw %struct.slice_buffer_s, ptr %18, i32 0, i32 1
  %20 = load ptr, ptr %19, align 8, !tbaa !21
  %21 = load ptr, ptr %3, align 8, !tbaa !4
  %22 = getelementptr inbounds nuw %struct.slice_buffer_s, ptr %21, i32 0, i32 2
  %23 = load i32, ptr %22, align 8, !tbaa !25
  %24 = sext i32 %23 to i64
  %25 = getelementptr inbounds ptr, ptr %20, i64 %24
  store ptr %17, ptr %25, align 8, !tbaa !11
  %26 = load ptr, ptr %3, align 8, !tbaa !4
  %27 = getelementptr inbounds nuw %struct.slice_buffer_s, ptr %26, i32 0, i32 0
  %28 = load ptr, ptr %27, align 8, !tbaa !20
  %29 = load i32, ptr %4, align 4, !tbaa !9
  %30 = sext i32 %29 to i64
  %31 = getelementptr inbounds ptr, ptr %28, i64 %30
  store ptr null, ptr %31, align 8, !tbaa !11
  call void @llvm.lifetime.end.p0(i64 8, ptr %5) #8
  ret void
}