; Function Attrs: mustprogress nofree norecurse nosync nounwind willreturn memory(readwrite, inaccessiblemem: none) uwtable
define void @ff_slice_buffer_release(ptr noundef captures(none) %0, i32 noundef %1) local_unnamed_addr #4 {
  %3 = load ptr, ptr %0, align 8, !tbaa !16
  %4 = sext i32 %1 to i64
  %5 = getelementptr inbounds ptr, ptr %3, i64 %4
  %6 = load ptr, ptr %5, align 8, !tbaa !18
  %7 = getelementptr inbounds nuw i8, ptr %0, i64 16
  %8 = load i32, ptr %7, align 8, !tbaa !22
  %9 = add nsw i32 %8, 1
  store i32 %9, ptr %7, align 8, !tbaa !22
  %10 = getelementptr inbounds nuw i8, ptr %0, i64 8
  %11 = load ptr, ptr %10, align 8, !tbaa !17
  %12 = sext i32 %9 to i64
  %13 = getelementptr inbounds ptr, ptr %11, i64 %12
  store ptr %6, ptr %13, align 8, !tbaa !18
  store ptr null, ptr %5, align 8, !tbaa !18
  ret void
}